; Function Attrs: nounwind uwtable
define internal fastcc void @_jumbleRTEPermissionInfo(ptr noundef %0, ptr noundef nonnull readonly captures(none) %1) unnamed_addr #0 {
  %3 = getelementptr inbounds nuw i8, ptr %1, i64 4
  %4 = load ptr, ptr %0, align 8
  %5 = getelementptr inbounds nuw i8, ptr %0, i64 8
  %6 = load i64, ptr %5, align 8
  br label %.lr.ph.i

.lr.ph.i:                                         ; preds = %10, %2
  %.026.i = phi ptr [ %15, %10 ], [ %3, %2 ]
  %.02125.i = phi i64 [ %16, %10 ], [ 4, %2 ]
  %.02224.i = phi i64 [ %14, %10 ], [ %6, %2 ]
  %7 = icmp ugt i64 %.02224.i, 1023
  br i1 %7, label %8, label %10

8:                                                ; preds = %.lr.ph.i
  %9 = tail call i64 @hash_bytes_extended(ptr noundef %4, i32 noundef 1024, i64 noundef 0) #9
  store i64 %9, ptr %4, align 1
  br label %10

10:                                               ; preds = %8, %.lr.ph.i
  %.1.i = phi i64 [ 8, %8 ], [ %.02224.i, %.lr.ph.i ]
  %11 = sub nuw nsw i64 1024, %.1.i
  %12 = tail call i64 @llvm.umin.i64(i64 %.02125.i, i64 %11)
  %13 = getelementptr inbounds nuw i8, ptr %4, i64 %.1.i
  tail call void @llvm.memcpy.p0.p0.i64(ptr noundef nonnull align 1 dereferenceable(1) %13, ptr noundef nonnull align 1 dereferenceable(1) %.026.i, i64 %12, i1 false)
  %14 = add nuw nsw i64 %12, %.1.i
  %15 = getelementptr inbounds nuw i8, ptr %.026.i, i64 %12
  %16 = sub i64 %.02125.i, %12
  %.not.i = icmp eq i64 %16, 0
  br i1 %.not.i, label %AppendJumble.exit, label %.lr.ph.i, !llvm.loop !7

AppendJumble.exit:                                ; preds = %10
  store i64 %14, ptr %5, align 8
  %17 = getelementptr inbounds nuw i8, ptr %1, i64 8
  %18 = load ptr, ptr %0, align 8
  br label %.lr.ph.i15

.lr.ph.i15:                                       ; preds = %22, %AppendJumble.exit
  %.026.i16 = phi ptr [ %27, %22 ], [ %17, %AppendJumble.exit ]
  %.02125.i17 = phi i64 [ %28, %22 ], [ 1, %AppendJumble.exit ]
  %.02224.i18 = phi i64 [ %26, %22 ], [ %14, %AppendJumble.exit ]
  %19 = icmp ugt i64 %.02224.i18, 1023
  br i1 %19, label %20, label %22

20:                                               ; preds = %.lr.ph.i15
  %21 = tail call i64 @hash_bytes_extended(ptr noundef %18, i32 noundef 1024, i64 noundef 0) #9
  store i64 %21, ptr %18, align 1
  br label %22

22:                                               ; preds = %20, %.lr.ph.i15
  %.1.i19 = phi i64 [ 8, %20 ], [ %.02224.i18, %.lr.ph.i15 ]
  %23 = sub nuw nsw i64 1024, %.1.i19
  %24 = tail call i64 @llvm.umin.i64(i64 %.02125.i17, i64 %23)
  %25 = getelementptr inbounds nuw i8, ptr %18, i64 %.1.i19
  tail call void @llvm.memcpy.p0.p0.i64(ptr noundef nonnull align 1 dereferenceable(1) %25, ptr noundef nonnull align 1 dereferenceable(1) %.026.i16, i64 %24, i1 false)
  %26 = add nuw nsw i64 %24, %.1.i19
  %27 = getelementptr inbounds nuw i8, ptr %.026.i16, i64 %24
  %28 = sub i64 %.02125.i17, %24
  %.not.i20 = icmp eq i64 %28, 0
  br i1 %.not.i20, label %AppendJumble.exit21, label %.lr.ph.i15, !llvm.loop !7

AppendJumble.exit21:                              ; preds = %22
  store i64 %26, ptr %5, align 8
  %29 = getelementptr inbounds nuw i8, ptr %1, i64 16
  %30 = load ptr, ptr %0, align 8
  br label %.lr.ph.i22

.lr.ph.i22:                                       ; preds = %34, %AppendJumble.exit21
  %.026.i23 = phi ptr [ %39, %34 ], [ %29, %AppendJumble.exit21 ]
  %.02125.i24 = phi i64 [ %40, %34 ], [ 8, %AppendJumble.exit21 ]
  %.02224.i25 = phi i64 [ %38, %34 ], [ %26, %AppendJumble.exit21 ]
  %31 = icmp ugt i64 %.02224.i25, 1023
  br i1 %31, label %32, label %34

32:                                               ; preds = %.lr.ph.i22
  %33 = tail call i64 @hash_bytes_extended(ptr noundef %30, i32 noundef 1024, i64 noundef 0) #9
  store i64 %33, ptr %30, align 1
  br label %34

34:                                               ; preds = %32, %.lr.ph.i22
  %.1.i26 = phi i64 [ 8, %32 ], [ %.02224.i25, %.lr.ph.i22 ]
  %35 = sub nuw nsw i64 1024, %.1.i26
  %36 = tail call i64 @llvm.umin.i64(i64 %.02125.i24, i64 %35)
  %37 = getelementptr inbounds nuw i8, ptr %30, i64 %.1.i26
  tail call void @llvm.memcpy.p0.p0.i64(ptr noundef nonnull align 1 dereferenceable(1) %37, ptr noundef nonnull align 1 dereferenceable(1) %.026.i23, i64 %36, i1 false)
  %38 = add nuw nsw i64 %36, %.1.i26
  %39 = getelementptr inbounds nuw i8, ptr %.026.i23, i64 %36
  %40 = sub i64 %.02125.i24, %36
  %.not.i27 = icmp eq i64 %40, 0
  br i1 %.not.i27, label %AppendJumble.exit28, label %.lr.ph.i22, !llvm.loop !7

AppendJumble.exit28:                              ; preds = %34
  store i64 %38, ptr %5, align 8
  %41 = getelementptr inbounds nuw i8, ptr %1, i64 24
  %42 = load ptr, ptr %0, align 8
  br label %.lr.ph.i29

.lr.ph.i29:                                       ; preds = %46, %AppendJumble.exit28
  %.026.i30 = phi ptr [ %51, %46 ], [ %41, %AppendJumble.exit28 ]
  %.02125.i31 = phi i64 [ %52, %46 ], [ 4, %AppendJumble.exit28 ]
  %.02224.i32 = phi i64 [ %50, %46 ], [ %38, %AppendJumble.exit28 ]
  %43 = icmp ugt i64 %.02224.i32, 1023
  br i1 %43, label %44, label %46

44:                                               ; preds = %.lr.ph.i29
  %45 = tail call i64 @hash_bytes_extended(ptr noundef %42, i32 noundef 1024, i64 noundef 0) #9
  store i64 %45, ptr %42, align 1
  br label %46

46:                                               ; preds = %44, %.lr.ph.i29
  %.1.i33 = phi i64 [ 8, %44 ], [ %.02224.i32, %.lr.ph.i29 ]
  %47 = sub nuw nsw i64 1024, %.1.i33
  %48 = tail call i64 @llvm.umin.i64(i64 %.02125.i31, i64 %47)
  %49 = getelementptr inbounds nuw i8, ptr %42, i64 %.1.i33
  tail call void @llvm.memcpy.p0.p0.i64(ptr noundef nonnull align 1 dereferenceable(1) %49, ptr noundef nonnull align 1 dereferenceable(1) %.026.i30, i64 %48, i1 false)
  %50 = add nuw nsw i64 %48, %.1.i33
  %51 = getelementptr inbounds nuw i8, ptr %.026.i30, i64 %48
  %52 = sub i64 %.02125.i31, %48
  %.not.i34 = icmp eq i64 %52, 0
  br i1 %.not.i34, label %AppendJumble.exit35, label %.lr.ph.i29, !llvm.loop !7

AppendJumble.exit35:                              ; preds = %46
  store i64 %50, ptr %5, align 8
  %53 = getelementptr inbounds nuw i8, ptr %1, i64 32
  %54 = load ptr, ptr %53, align 8
  tail call fastcc void @_jumbleNode(ptr noundef nonnull %0, ptr noundef %54)
  %55 = getelementptr inbounds nuw i8, ptr %1, i64 40
  %56 = load ptr, ptr %55, align 8
  tail call fastcc void @_jumbleNode(ptr noundef nonnull %0, ptr noundef %56)
  %57 = getelementptr inbounds nuw i8, ptr %1, i64 48
  %58 = load ptr, ptr %57, align 8
  tail call fastcc void @_jumbleNode(ptr noundef nonnull %0, ptr noundef %58)
  ret void
}